; Function Attrs: mustprogress nounwind uwtable
define hidden void @_ZN6Assimp15IRRMeshImporterD2Ev(ptr noundef nonnull align 8 dereferenceable(112) %this) unnamed_addr #0 align 2 personality ptr @__gxx_personality_v0 {
entry:
  %0 = getelementptr inbounds i8, ptr %this, i64 72
  tail call void @_ZN6Assimp10TXmlParserIN4pugi8xml_nodeEE5clearEv(ptr noundef nonnull align 8 dereferenceable(40) %0)
  %mData.i.i = getelementptr inbounds i8, ptr %this, i64 88
  %1 = load ptr, ptr %mData.i.i, align 8
  %tobool.not.i.i.i.i.i = icmp eq ptr %1, null
  br i1 %tobool.not.i.i.i.i.i, label %_ZN6Assimp12IrrlichtBaseD2Ev.exit, label %if.then.i.i.i.i.i

if.then.i.i.i.i.i:                                ; preds = %entry
  tail call void @_ZdlPv(ptr noundef nonnull %1) #23
  br label %_ZN6Assimp12IrrlichtBaseD2Ev.exit

_ZN6Assimp12IrrlichtBaseD2Ev.exit:                ; preds = %entry, %if.then.i.i.i.i.i
  tail call void @_ZNSaIcED2Ev(ptr noundef nonnull align 1 dereferenceable(1) %mData.i.i) #22
  tail call void @_ZN6Assimp12BaseImporterD2Ev(ptr noundef nonnull align 8 dereferenceable(72) %this) #22
  ret void
}